; Function Attrs: mustprogress nounwind uwtable
define void @_ZN4base19ThreadIdNameManagerD2Ev(ptr noundef nonnull align 8 dereferenceable(196) %0) unnamed_addr #4 align 2 personality ptr @__gxx_personality_v0 {
  %2 = getelementptr inbounds nuw i8, ptr %0, i64 136
  %3 = getelementptr inbounds nuw i8, ptr %0, i64 152
  %4 = load ptr, ptr %3, align 8, !tbaa !12
  invoke void @_ZNSt8_Rb_treeImSt4pairIKmPNSt7__cxx1112basic_stringIcSt11char_traitsIcESaIcEEEESt10_Select1stIS9_ESt4lessImESaIS9_EE8_M_eraseEPSt13_Rb_tree_nodeIS9_E(ptr noundef nonnull align 8 dereferenceable(48) %2, ptr noundef %4)
          to label %_ZNSt3mapImPNSt7__cxx1112basic_stringIcSt11char_traitsIcESaIcEEESt4lessImESaISt4pairIKmS6_EEED2Ev.exit unwind label %5

5:                                                ; preds = %1
  %6 = landingpad { ptr, i32 }
          catch ptr null
  %7 = extractvalue { ptr, i32 } %6, 0
  tail call void @__clang_call_terminate(ptr %7) #19
  unreachable

_ZNSt3mapImPNSt7__cxx1112basic_stringIcSt11char_traitsIcESaIcEEESt4lessImESaISt4pairIKmS6_EEED2Ev.exit: ; preds = %1
  %8 = getelementptr inbounds nuw i8, ptr %0, i64 88
  %9 = getelementptr inbounds nuw i8, ptr %0, i64 104
  %10 = load ptr, ptr %9, align 8, !tbaa !12
  invoke void @_ZNSt8_Rb_treeIiSt4pairIKimESt10_Select1stIS2_ESt4lessIiESaIS2_EE8_M_eraseEPSt13_Rb_tree_nodeIS2_E(ptr noundef nonnull align 8 dereferenceable(48) %8, ptr noundef %10)
          to label %_ZNSt3mapIimSt4lessIiESaISt4pairIKimEEED2Ev.exit unwind label %11

11:                                               ; preds = %_ZNSt3mapImPNSt7__cxx1112basic_stringIcSt11char_traitsIcESaIcEEESt4lessImESaISt4pairIKmS6_EEED2Ev.exit
  %12 = landingpad { ptr, i32 }
          catch ptr null
  %13 = extractvalue { ptr, i32 } %12, 0
  tail call void @__clang_call_terminate(ptr %13) #19
  unreachable

_ZNSt3mapIimSt4lessIiESaISt4pairIKimEEED2Ev.exit: ; preds = %_ZNSt3mapImPNSt7__cxx1112basic_stringIcSt11char_traitsIcESaIcEEESt4lessImESaISt4pairIKmS6_EEED2Ev.exit
  %14 = getelementptr inbounds nuw i8, ptr %0, i64 40
  %15 = getelementptr inbounds nuw i8, ptr %0, i64 56
  %16 = load ptr, ptr %15, align 8, !tbaa !12
  invoke void @_ZNSt8_Rb_treeINSt7__cxx1112basic_stringIcSt11char_traitsIcESaIcEEESt4pairIKS5_PS5_ESt10_Select1stIS9_ESt4lessIS5_ESaIS9_EE8_M_eraseEPSt13_Rb_tree_nodeIS9_E(ptr noundef nonnull align 8 dereferenceable(48) %14, ptr noundef %16)
          to label %_ZNSt3mapINSt7__cxx1112basic_stringIcSt11char_traitsIcESaIcEEEPS5_St4lessIS5_ESaISt4pairIKS5_S6_EEED2Ev.exit unwind label %17

17:                                               ; preds = %_ZNSt3mapIimSt4lessIiESaISt4pairIKimEEED2Ev.exit
  %18 = landingpad { ptr, i32 }
          catch ptr null
  %19 = extractvalue { ptr, i32 } %18, 0
  tail call void @__clang_call_terminate(ptr %19) #19
  unreachable

_ZNSt3mapINSt7__cxx1112basic_stringIcSt11char_traitsIcESaIcEEEPS5_St4lessIS5_ESaISt4pairIKS5_S6_EEED2Ev.exit: ; preds = %_ZNSt3mapIimSt4lessIiESaISt4pairIKimEEED2Ev.exit
  tail call void @_ZN4base8internal8LockImplD1Ev(ptr noundef nonnull align 8 dereferenceable(40) %0) #17
  ret void
}